; Function Attrs: mustprogress uwtable
define void @_ZN32pxrInternal_v0_24__pxrReserved__28PcpExpressionVariablesSourceC2ERKNS_23PcpLayerStackIdentifierES3_(ptr noundef nonnull align 8 dereferenceable(16) %0, ptr noundef nonnull align 8 dereferenceable(80) %1, ptr noundef nonnull align 8 dereferenceable(80) %2) unnamed_addr #1 align 2 personality ptr @__gxx_personality_v0 {
  %4 = tail call noundef zeroext i1 @_ZNK32pxrInternal_v0_24__pxrReserved__23PcpLayerStackIdentifiereqERKS0_(ptr noundef nonnull align 8 dereferenceable(80) %1, ptr noundef nonnull align 8 dereferenceable(80) %2)
  br i1 %4, label %7, label %5

5:                                                ; preds = %3
  %6 = tail call noalias noundef nonnull dereferenceable(80) ptr @_Znwm(i64 noundef 80) #13
  invoke void @_ZN32pxrInternal_v0_24__pxrReserved__23PcpLayerStackIdentifierC2ERKS0_(ptr noundef nonnull align 8 dereferenceable(80) %6, ptr noundef nonnull align 8 dereferenceable(80) %1)
          to label %7 unwind label %10

7:                                                ; preds = %5, %3
  %8 = phi ptr [ null, %3 ], [ %6, %5 ]
  store ptr %8, ptr %0, align 8
  %9 = getelementptr inbounds nuw i8, ptr %0, i64 8
  tail call void @_ZNSt14__shared_countILN9__gnu_cxx12_Lock_policyE2EEC2IPN32pxrInternal_v0_24__pxrReserved__23PcpLayerStackIdentifierEEET_(ptr noundef nonnull align 8 dereferenceable(8) %9, ptr noundef %8)
  ret void

10:                                               ; preds = %5
  %11 = landingpad { ptr, i32 }
          cleanup
  tail call void @_ZdlPvm(ptr noundef nonnull %6, i64 noundef 80) #14
  resume { ptr, i32 } %11
}